target datalayout = "e-m:e-p270:32:32-p271:32:32-p272:64:64-i64:64-i128:128-f80:128-n8:16:32:64-S128"
target triple = "x86_64-unknown-linux-gnu"

%"struct.(anonymous namespace)::ZParam" = type { double, double, i32, i64 }
%"class.std::__cxx11::basic_string" = type { %"struct.std::__cxx11::basic_string<char>::_Alloc_hider", i64, %union.anon }
%"struct.std::__cxx11::basic_string<char>::_Alloc_hider" = type { ptr }
%union.anon = type { i64, [8 x i8] }
%"class.std::basic_string_view" = type { i64, ptr }
%"class.absl::AlphaNum" = type { %"class.std::basic_string_view", [32 x i8] }
%"struct.absl::strings_internal::AlphaNumBuffer" = type { %"struct.std::array", i64 }
%"struct.std::array" = type { [16 x i8] }
%"class.std::initializer_list.135" = type { ptr, i64 }
%"struct.std::pair.136" = type { %"class.std::basic_string_view", %"class.std::basic_string_view" }
%"struct.testing::TestParamInfo" = type { %"struct.(anonymous namespace)::ZParam", i64 }

@.str.54 = private unnamed_addr constant [6 x i8] c"mean_\00", align 1
@.str.55 = private unnamed_addr constant [2 x i8] c"+\00", align 1
@.str.56 = private unnamed_addr constant [2 x i8] c"_\00", align 1
@.str.57 = private unnamed_addr constant [2 x i8] c"-\00", align 1
@.str.58 = private unnamed_addr constant [2 x i8] c".\00", align 1

; Function Attrs: noreturn nounwind uwtable
define linkonce_odr hidden void @__clang_call_terminate(ptr noundef %0) #10 comdat {
  %2 = call ptr @__cxa_begin_catch(ptr %0) #3
  call void @_ZSt9terminatev() #29
  unreachable
}

; Function Attrs: mustprogress nounwind uwtable
define linkonce_odr dso_local noundef i64 @_ZNSt11char_traitsIcE6lengthEPKc(ptr noundef %__s) #5 comdat align 2 {
entry:
  %__s.addr = alloca ptr, align 8
  store ptr %__s, ptr %__s.addr, align 8
  %0 = load ptr, ptr %__s.addr, align 8
  %call = call i64 @strlen(ptr noundef %0) #3
  ret i64 %call
}

; Function Attrs: mustprogress nounwind uwtable
define linkonce_odr dso_local noundef nonnull align 1 dereferenceable(1) ptr @_ZNSt14__array_traitsIcLm16EE6_S_refERA16_Kcm(ptr noundef nonnull align 1 dereferenceable(16) %__t, i64 noundef %__n) #5 comdat align 2 {
entry:
  %__t.addr = alloca ptr, align 8
  %__n.addr = alloca i64, align 8
  store ptr %__t, ptr %__t.addr, align 8
  store i64 %__n, ptr %__n.addr, align 8
  %0 = load ptr, ptr %__t.addr, align 8
  %1 = load i64, ptr %__n.addr, align 8
  %arrayidx = getelementptr inbounds [16 x i8], ptr %0, i64 0, i64 %1
  ret ptr %arrayidx
}

; Function Attrs: mustprogress nounwind uwtable
define linkonce_odr dso_local void @_ZNSt17basic_string_viewIcSt11char_traitsIcEEC2Ev(ptr noundef nonnull align 8 dereferenceable(16) %this) unnamed_addr #5 comdat align 2 {
entry:
  %this.addr = alloca ptr, align 8
  store ptr %this, ptr %this.addr, align 8
  %this1 = load ptr, ptr %this.addr, align 8
  %_M_len = getelementptr inbounds %"class.std::basic_string_view", ptr %this1, i32 0, i32 0
  store i64 0, ptr %_M_len, align 8
  %_M_str = getelementptr inbounds %"class.std::basic_string_view", ptr %this1, i32 0, i32 1
  store ptr null, ptr %_M_str, align 8
  ret void
}

; Function Attrs: mustprogress nounwind uwtable
define linkonce_odr dso_local void @_ZNSt17basic_string_viewIcSt11char_traitsIcEEC2EPKc(ptr noundef nonnull align 8 dereferenceable(16) %this, ptr noundef nonnull %__str) unnamed_addr #5 comdat align 2 personality ptr @__gxx_personality_v0 {
entry:
  %this.addr = alloca ptr, align 8
  %__str.addr = alloca ptr, align 8
  store ptr %this, ptr %this.addr, align 8
  store ptr %__str, ptr %__str.addr, align 8
  %this1 = load ptr, ptr %this.addr, align 8
  %_M_len = getelementptr inbounds %"class.std::basic_string_view", ptr %this1, i32 0, i32 0
  %0 = load ptr, ptr %__str.addr, align 8
  %call = invoke noundef i64 @_ZNSt11char_traitsIcE6lengthEPKc(ptr noundef %0)
          to label %invoke.cont unwind label %terminate.lpad

invoke.cont:                                      ; preds = %entry
  store i64 %call, ptr %_M_len, align 8
  %_M_str = getelementptr inbounds %"class.std::basic_string_view", ptr %this1, i32 0, i32 1
  %1 = load ptr, ptr %__str.addr, align 8
  store ptr %1, ptr %_M_str, align 8
  ret void

terminate.lpad:                                   ; preds = %entry
  %2 = landingpad { ptr, i32 }
          catch ptr null
  %3 = extractvalue { ptr, i32 } %2, 0
  call void @__clang_call_terminate(ptr %3) #29
  unreachable
}

; Function Attrs: mustprogress nounwind uwtable
define linkonce_odr dso_local void @_ZNSt17basic_string_viewIcSt11char_traitsIcEEC2EPKcm(ptr noundef nonnull align 8 dereferenceable(16) %this, ptr noundef %__str, i64 noundef %__len) unnamed_addr #5 comdat align 2 {
entry:
  %this.addr = alloca ptr, align 8
  %__str.addr = alloca ptr, align 8
  %__len.addr = alloca i64, align 8
  store ptr %this, ptr %this.addr, align 8
  store ptr %__str, ptr %__str.addr, align 8
  store i64 %__len, ptr %__len.addr, align 8
  %this1 = load ptr, ptr %this.addr, align 8
  %_M_len = getelementptr inbounds %"class.std::basic_string_view", ptr %this1, i32 0, i32 0
  %0 = load i64, ptr %__len.addr, align 8
  store i64 %0, ptr %_M_len, align 8
  %_M_str = getelementptr inbounds %"class.std::basic_string_view", ptr %this1, i32 0, i32 1
  %1 = load ptr, ptr %__str.addr, align 8
  store ptr %1, ptr %_M_str, align 8
  ret void
}

; Function Attrs: mustprogress nounwind uwtable
define linkonce_odr dso_local noundef nonnull align 1 dereferenceable(1) ptr @_ZNKSt5arrayIcLm16EEixEm(ptr noundef nonnull align 1 dereferenceable(16) %this, i64 noundef %__n) #5 comdat align 2 {
entry:
  %this.addr = alloca ptr, align 8
  %__n.addr = alloca i64, align 8
  store ptr %this, ptr %this.addr, align 8
  store i64 %__n, ptr %__n.addr, align 8
  %this1 = load ptr, ptr %this.addr, align 8
  %_M_elems = getelementptr inbounds %"struct.std::array", ptr %this1, i32 0, i32 0
  %0 = load i64, ptr %__n.addr, align 8
  %call = call noundef nonnull align 1 dereferenceable(1) ptr @_ZNSt14__array_traitsIcLm16EE6_S_refERA16_Kcm(ptr noundef nonnull align 1 dereferenceable(16) %_M_elems, i64 noundef %0) #3
  ret ptr %call
}

; Function Attrs: mustprogress nounwind uwtable
define linkonce_odr dso_local noundef nonnull align 1 dereferenceable(1) ptr @_ZNSt5arrayIcLm16EEixEm(ptr noundef nonnull align 1 dereferenceable(16) %this, i64 noundef %__n) #5 comdat align 2 {
entry:
  %this.addr = alloca ptr, align 8
  %__n.addr = alloca i64, align 8
  store ptr %this, ptr %this.addr, align 8
  store i64 %__n, ptr %__n.addr, align 8
  %this1 = load ptr, ptr %this.addr, align 8
  %_M_elems = getelementptr inbounds %"struct.std::array", ptr %this1, i32 0, i32 0
  %0 = load i64, ptr %__n.addr, align 8
  %call = call noundef nonnull align 1 dereferenceable(1) ptr @_ZNSt14__array_traitsIcLm16EE6_S_refERA16_Kcm(ptr noundef nonnull align 1 dereferenceable(16) %_M_elems, i64 noundef %0) #3
  ret ptr %call
}

; Function Attrs: mustprogress nounwind uwtable
define linkonce_odr dso_local { i64, ptr } @_ZN4absl18NullSafeStringViewEPKc(ptr noundef %p) #5 comdat {
entry:
  %retval = alloca %"class.std::basic_string_view", align 8
  %p.addr = alloca ptr, align 8
  store ptr %p, ptr %p.addr, align 8
  %0 = load ptr, ptr %p.addr, align 8
  %tobool = icmp ne ptr %0, null
  br i1 %tobool, label %cond.true, label %cond.false

cond.true:                                        ; preds = %entry
  %1 = load ptr, ptr %p.addr, align 8
  call void @_ZNSt17basic_string_viewIcSt11char_traitsIcEEC2EPKc(ptr noundef nonnull align 8 dereferenceable(16) %retval, ptr noundef %1) #3
  br label %cond.end

cond.false:                                       ; preds = %entry
  call void @_ZNSt17basic_string_viewIcSt11char_traitsIcEEC2Ev(ptr noundef nonnull align 8 dereferenceable(16) %retval) #3
  br label %cond.end

cond.end:                                         ; preds = %cond.false, %cond.true
  %2 = load { i64, ptr }, ptr %retval, align 8
  ret { i64, ptr } %2
}

; Function Attrs: mustprogress nounwind uwtable
define linkonce_odr dso_local void @_ZNSt4pairISt17basic_string_viewIcSt11char_traitsIcEES3_EC2IRA2_KcS8_TnNSt9enable_ifIXaaclsr5_PCCPE22_MoveConstructiblePairIT_T0_EEclsr5_PCCPE30_ImplicitlyMoveConvertiblePairISA_SB_EEEbE4typeELb1EEEOSA_OSB_(ptr noundef nonnull align 8 dereferenceable(32) %this, ptr noundef nonnull align 1 dereferenceable(2) %__x, ptr noundef nonnull align 1 dereferenceable(2) %__y) unnamed_addr #5 comdat align 2 {
entry:
  %this.addr = alloca ptr, align 8
  %__x.addr = alloca ptr, align 8
  %__y.addr = alloca ptr, align 8
  store ptr %this, ptr %this.addr, align 8
  store ptr %__x, ptr %__x.addr, align 8
  store ptr %__y, ptr %__y.addr, align 8
  %this1 = load ptr, ptr %this.addr, align 8
  %first = getelementptr inbounds %"struct.std::pair.136", ptr %this1, i32 0, i32 0
  %0 = load ptr, ptr %__x.addr, align 8
  %arraydecay = getelementptr inbounds [2 x i8], ptr %0, i64 0, i64 0
  call void @_ZNSt17basic_string_viewIcSt11char_traitsIcEEC2EPKc(ptr noundef nonnull align 8 dereferenceable(16) %first, ptr noundef %arraydecay) #3
  %second = getelementptr inbounds %"struct.std::pair.136", ptr %this1, i32 0, i32 1
  %1 = load ptr, ptr %__y.addr, align 8
  %arraydecay2 = getelementptr inbounds [2 x i8], ptr %1, i64 0, i64 0
  call void @_ZNSt17basic_string_viewIcSt11char_traitsIcEEC2EPKc(ptr noundef nonnull align 8 dereferenceable(16) %second, ptr noundef %arraydecay2) #3
  ret void
}

; Function Attrs: mustprogress nounwind uwtable
define linkonce_odr dso_local void @_ZN4absl8AlphaNumC2ILm16EEERKNS_16strings_internal14AlphaNumBufferIXT_EEE(ptr noundef nonnull align 8 dereferenceable(48) %this, ptr noundef nonnull align 8 dereferenceable(24) %buf) unnamed_addr #5 comdat align 2 {
entry:
  %this.addr = alloca ptr, align 8
  %buf.addr = alloca ptr, align 8
  store ptr %this, ptr %this.addr, align 8
  store ptr %buf, ptr %buf.addr, align 8
  %this1 = load ptr, ptr %this.addr, align 8
  %piece_ = getelementptr inbounds %"class.absl::AlphaNum", ptr %this1, i32 0, i32 0
  %0 = load ptr, ptr %buf.addr, align 8
  %data = getelementptr inbounds %"struct.absl::strings_internal::AlphaNumBuffer", ptr %0, i32 0, i32 0
  %call = call noundef nonnull align 1 dereferenceable(1) ptr @_ZNKSt5arrayIcLm16EEixEm(ptr noundef nonnull align 1 dereferenceable(16) %data, i64 noundef 0) #3
  %1 = load ptr, ptr %buf.addr, align 8
  %size = getelementptr inbounds %"struct.absl::strings_internal::AlphaNumBuffer", ptr %1, i32 0, i32 1
  %2 = load i64, ptr %size, align 8
  call void @_ZNSt17basic_string_viewIcSt11char_traitsIcEEC2EPKcm(ptr noundef nonnull align 8 dereferenceable(16) %piece_, ptr noundef %call, i64 noundef %2) #3
  ret void
}

; Function Attrs: mustprogress uwtable
define linkonce_odr dso_local void @_ZN4absl9SixDigitsEd(ptr noalias sret(%"struct.absl::strings_internal::AlphaNumBuffer") align 8 %agg.result, double noundef %d) #4 comdat {
entry:
  %d.addr = alloca double, align 8
  store double %d, ptr %d.addr, align 8
  %0 = load double, ptr %d.addr, align 8
  %data = getelementptr inbounds %"struct.absl::strings_internal::AlphaNumBuffer", ptr %agg.result, i32 0, i32 0
  %call = call noundef nonnull align 1 dereferenceable(1) ptr @_ZNSt5arrayIcLm16EEixEm(ptr noundef nonnull align 1 dereferenceable(16) %data, i64 noundef 0) #3
  %call1 = call noundef i64 @_ZN4absl16numbers_internal17SixDigitsToBufferEdPc(double noundef %0, ptr noundef %call)
  %size = getelementptr inbounds %"struct.absl::strings_internal::AlphaNumBuffer", ptr %agg.result, i32 0, i32 1
  store i64 %call1, ptr %size, align 8
  ret void
}

; Function Attrs: mustprogress uwtable
define linkonce_odr dso_local void @_ZN4absl8AlphaNumC2EPKc(ptr noundef nonnull align 8 dereferenceable(48) %this, ptr noundef %c_str) unnamed_addr #4 comdat align 2 {
entry:
  %this.addr = alloca ptr, align 8
  %c_str.addr = alloca ptr, align 8
  store ptr %this, ptr %this.addr, align 8
  store ptr %c_str, ptr %c_str.addr, align 8
  %this1 = load ptr, ptr %this.addr, align 8
  %piece_ = getelementptr inbounds %"class.absl::AlphaNum", ptr %this1, i32 0, i32 0
  %0 = load ptr, ptr %c_str.addr, align 8
  %call = call { i64, ptr } @_ZN4absl18NullSafeStringViewEPKc(ptr noundef %0)
  %1 = getelementptr inbounds { i64, ptr }, ptr %piece_, i32 0, i32 0
  %2 = extractvalue { i64, ptr } %call, 0
  store i64 %2, ptr %1, align 8
  %3 = getelementptr inbounds { i64, ptr }, ptr %piece_, i32 0, i32 1
  %4 = extractvalue { i64, ptr } %call, 1
  store ptr %4, ptr %3, align 8
  ret void
}

; Function Attrs: mustprogress uwtable
define internal void @_ZN12_GLOBAL__N_110ZParamNameB5cxx11ERKN7testing13TestParamInfoINS_6ZParamEEE(ptr noalias sret(%"class.std::__cxx11::basic_string") align 8 %agg.result, ptr noundef nonnull align 8 dereferenceable(40) %info) #4 personality ptr @__gxx_personality_v0 {
entry:
  %result.ptr = alloca ptr, align 8
  %info.addr = alloca ptr, align 8
  %p = alloca ptr, align 8
  %name = alloca %"class.std::__cxx11::basic_string", align 8
  %ref.tmp = alloca %"class.absl::AlphaNum", align 8
  %ref.tmp1 = alloca %"class.absl::AlphaNum", align 8
  %ref.tmp2 = alloca %"struct.absl::strings_internal::AlphaNumBuffer", align 8
  %agg.tmp = alloca %"class.std::basic_string_view", align 8
  %agg.tmp3 = alloca %"class.std::initializer_list.135", align 8
  %ref.tmp4 = alloca [3 x %"struct.std::pair.136"], align 8
  %exn.slot = alloca ptr, align 8
  %ehselector.slot = alloca i32, align 4
  store ptr %agg.result, ptr %result.ptr, align 8
  store ptr %info, ptr %info.addr, align 8
  %0 = load ptr, ptr %info.addr, align 8
  %param = getelementptr inbounds %"struct.testing::TestParamInfo", ptr %0, i32 0, i32 0
  store ptr %param, ptr %p, align 8
  call void @_ZN4absl8AlphaNumC2EPKc(ptr noundef nonnull align 8 dereferenceable(48) %ref.tmp, ptr noundef @.str.54)
  %1 = load ptr, ptr %p, align 8
  %mean = getelementptr inbounds %"struct.(anonymous namespace)::ZParam", ptr %1, i32 0, i32 0
  %2 = load double, ptr %mean, align 8
  call void @_ZN4absl9SixDigitsEd(ptr sret(%"struct.absl::strings_internal::AlphaNumBuffer") align 8 %ref.tmp2, double noundef %2)
  call void @_ZN4absl8AlphaNumC2ILm16EEERKNS_16strings_internal14AlphaNumBufferIXT_EEE(ptr noundef nonnull align 8 dereferenceable(48) %ref.tmp1, ptr noundef nonnull align 8 dereferenceable(24) %ref.tmp2)
  call void @_ZN4absl6StrCatB5cxx11ERKNS_8AlphaNumES2_(ptr sret(%"class.std::__cxx11::basic_string") align 8 %name, ptr noundef nonnull align 8 dereferenceable(48) %ref.tmp, ptr noundef nonnull align 8 dereferenceable(48) %ref.tmp1)
  %call = call { i64, ptr } @_ZNKSt7__cxx1112basic_stringIcSt11char_traitsIcESaIcEEcvSt17basic_string_viewIcS2_EEv(ptr noundef nonnull align 8 dereferenceable(32) %name) #3
  %3 = getelementptr inbounds { i64, ptr }, ptr %agg.tmp, i32 0, i32 0
  %4 = extractvalue { i64, ptr } %call, 0
  store i64 %4, ptr %3, align 8
  %5 = getelementptr inbounds { i64, ptr }, ptr %agg.tmp, i32 0, i32 1
  %6 = extractvalue { i64, ptr } %call, 1
  store ptr %6, ptr %5, align 8
  %arrayinit.begin = getelementptr inbounds [3 x %"struct.std::pair.136"], ptr %ref.tmp4, i64 0, i64 0
  invoke void @_ZNSt4pairISt17basic_string_viewIcSt11char_traitsIcEES3_EC2IRA2_KcS8_TnNSt9enable_ifIXaaclsr5_PCCPE22_MoveConstructiblePairIT_T0_EEclsr5_PCCPE30_ImplicitlyMoveConvertiblePairISA_SB_EEEbE4typeELb1EEEOSA_OSB_(ptr noundef nonnull align 8 dereferenceable(32) %arrayinit.begin, ptr noundef nonnull align 1 dereferenceable(2) @.str.55, ptr noundef nonnull align 1 dereferenceable(2) @.str.56)
          to label %invoke.cont unwind label %lpad

invoke.cont:                                      ; preds = %entry
  %arrayinit.element = getelementptr inbounds %"struct.std::pair.136", ptr %arrayinit.begin, i64 1
  invoke void @_ZNSt4pairISt17basic_string_viewIcSt11char_traitsIcEES3_EC2IRA2_KcS8_TnNSt9enable_ifIXaaclsr5_PCCPE22_MoveConstructiblePairIT_T0_EEclsr5_PCCPE30_ImplicitlyMoveConvertiblePairISA_SB_EEEbE4typeELb1EEEOSA_OSB_(ptr noundef nonnull align 8 dereferenceable(32) %arrayinit.element, ptr noundef nonnull align 1 dereferenceable(2) @.str.57, ptr noundef nonnull align 1 dereferenceable(2) @.str.56)
          to label %invoke.cont5 unwind label %lpad

invoke.cont5:                                     ; preds = %invoke.cont
  %arrayinit.element6 = getelementptr inbounds %"struct.std::pair.136", ptr %arrayinit.element, i64 1
  invoke void @_ZNSt4pairISt17basic_string_viewIcSt11char_traitsIcEES3_EC2IRA2_KcS8_TnNSt9enable_ifIXaaclsr5_PCCPE22_MoveConstructiblePairIT_T0_EEclsr5_PCCPE30_ImplicitlyMoveConvertiblePairISA_SB_EEEbE4typeELb1EEEOSA_OSB_(ptr noundef nonnull align 8 dereferenceable(32) %arrayinit.element6, ptr noundef nonnull align 1 dereferenceable(2) @.str.58, ptr noundef nonnull align 1 dereferenceable(2) @.str.56)
          to label %invoke.cont7 unwind label %lpad

invoke.cont7:                                     ; preds = %invoke.cont5
  %_M_array = getelementptr inbounds %"class.std::initializer_list.135", ptr %agg.tmp3, i32 0, i32 0
  %arraystart = getelementptr inbounds [3 x %"struct.std::pair.136"], ptr %ref.tmp4, i64 0, i64 0
  store ptr %arraystart, ptr %_M_array, align 8
  %_M_len = getelementptr inbounds %"class.std::initializer_list.135", ptr %agg.tmp3, i32 0, i32 1
  store i64 3, ptr %_M_len, align 8
  %7 = getelementptr inbounds { i64, ptr }, ptr %agg.tmp, i32 0, i32 0
  %8 = load i64, ptr %7, align 8
  %9 = getelementptr inbounds { i64, ptr }, ptr %agg.tmp, i32 0, i32 1
  %10 = load ptr, ptr %9, align 8
  %11 = getelementptr inbounds { ptr, i64 }, ptr %agg.tmp3, i32 0, i32 0
  %12 = load ptr, ptr %11, align 8
  %13 = getelementptr inbounds { ptr, i64 }, ptr %agg.tmp3, i32 0, i32 1
  %14 = load i64, ptr %13, align 8
  invoke void @_ZN4absl13StrReplaceAllB5cxx11ESt17basic_string_viewIcSt11char_traitsIcEESt16initializer_listISt4pairIS3_S3_EE(ptr sret(%"class.std::__cxx11::basic_string") align 8 %agg.result, i64 %8, ptr %10, ptr %12, i64 %14)
          to label %invoke.cont8 unwind label %lpad

invoke.cont8:                                     ; preds = %invoke.cont7
  call void @_ZNSt7__cxx1112basic_stringIcSt11char_traitsIcESaIcEED1Ev(ptr noundef nonnull align 8 dereferenceable(32) %name) #3
  ret void

lpad:                                             ; preds = %invoke.cont7, %invoke.cont5, %invoke.cont, %entry
  %15 = landingpad { ptr, i32 }
          cleanup
  %16 = extractvalue { ptr, i32 } %15, 0
  store ptr %16, ptr %exn.slot, align 8
  %17 = extractvalue { ptr, i32 } %15, 1
  store i32 %17, ptr %ehselector.slot, align 4
  call void @_ZNSt7__cxx1112basic_stringIcSt11char_traitsIcESaIcEED1Ev(ptr noundef nonnull align 8 dereferenceable(32) %name) #3
  br label %eh.resume

eh.resume:                                        ; preds = %lpad
  %exn = load ptr, ptr %exn.slot, align 8
  %sel = load i32, ptr %ehselector.slot, align 4
  %lpad.val = insertvalue { ptr, i32 } poison, ptr %exn, 0
  %lpad.val9 = insertvalue { ptr, i32 } %lpad.val, i32 %sel, 1
  resume { ptr, i32 } %lpad.val9
}